target datalayout = "e-m:e-p270:32:32-p271:32:32-p272:64:64-i64:64-i128:128-f80:128-n8:16:32:64-S128"
target triple = "x86_64-unknown-linux-gnu"

@_ZN18OpenImageIO_v2_6_08PSDInput19additional_info_psbE = hidden global [14 x ptr] [ptr @.str, ptr @.str.2, ptr @.str.3, ptr @.str.4, ptr @.str.5, ptr @.str.6, ptr @.str.7, ptr @.str.8, ptr @.str.9, ptr @.str.10, ptr @.str.11, ptr @.str.12, ptr @.str.13, ptr @.str.14], align 16

; Function Attrs: mustprogress nounwind uwtable
define hidden noundef zeroext i1 @_ZN18OpenImageIO_v2_6_08PSDInput22is_additional_info_psbEPKc(ptr noundef nonnull align 8 dereferenceable(840) %this, ptr noundef %key) #4 align 2 {
entry:
  %retval = alloca i1, align 1
  %this.addr = alloca ptr, align 8
  %key.addr = alloca ptr, align 8
  %i = alloca i32, align 4
  store ptr %this, ptr %this.addr, align 8
  store ptr %key, ptr %key.addr, align 8
  store i32 0, ptr %i, align 4
  br label %for.cond

for.cond:                                         ; preds = %for.inc, %entry
  %0 = load i32, ptr %i, align 4
  %cmp = icmp ult i32 %0, 14
  br i1 %cmp, label %for.body, label %for.end

for.body:                                         ; preds = %for.cond
  %1 = load i32, ptr %i, align 4
  %idxprom = zext i32 %1 to i64
  %arrayidx = getelementptr inbounds [14 x ptr], ptr @_ZN18OpenImageIO_v2_6_08PSDInput19additional_info_psbE, i64 0, i64 %idxprom
  %2 = load ptr, ptr %arrayidx, align 8
  %3 = load ptr, ptr %key.addr, align 8
  %call = call i32 @memcmp(ptr noundef %2, ptr noundef %3, i64 noundef 4) #19
  %cmp2 = icmp eq i32 %call, 0
  br i1 %cmp2, label %if.then, label %if.end

if.then:                                          ; preds = %for.body
  store i1 true, ptr %retval, align 1
  br label %return

if.end:                                           ; preds = %for.body
  br label %for.inc

for.inc:                                          ; preds = %if.end
  %4 = load i32, ptr %i, align 4
  %inc = add i32 %4, 1
  store i32 %inc, ptr %i, align 4
  br label %for.cond, !llvm.loop !56

for.end:                                          ; preds = %for.cond
  store i1 false, ptr %retval, align 1
  br label %return

return:                                           ; preds = %for.end, %if.then
  %5 = load i1, ptr %retval, align 1
  ret i1 %5
}