; Function Attrs: mustprogress nofree nounwind willreturn memory(read, inaccessiblemem: none) uwtable
define hidden noundef zeroext i1 @_ZN18OpenImageIO_v2_6_08PSDInput22is_additional_info_psbEPKc(ptr nocapture noundef nonnull readnone align 8 dereferenceable(840) %this, ptr nocapture noundef readonly %key) local_unnamed_addr #17 align 2 {
entry:
  %0 = load ptr, ptr @_ZN18OpenImageIO_v2_6_08PSDInput19additional_info_psbE, align 16
  %bcmp5 = tail call i32 @bcmp(ptr noundef nonnull dereferenceable(4) %0, ptr noundef nonnull dereferenceable(4) %key, i64 4)
  %cmp26 = icmp eq i32 %bcmp5, 0
  br i1 %cmp26, label %return, label %for.cond

for.cond:                                         ; preds = %entry, %for.body
  %indvars.iv7 = phi i64 [ %indvars.iv.next, %for.body ], [ 0, %entry ]
  %indvars.iv.next = add nuw nsw i64 %indvars.iv7, 1
  %exitcond.not = icmp eq i64 %indvars.iv.next, 14
  br i1 %exitcond.not, label %return.loopexit, label %for.body, !llvm.loop !24

for.body:                                         ; preds = %for.cond
  %arrayidx = getelementptr inbounds [14 x ptr], ptr @_ZN18OpenImageIO_v2_6_08PSDInput19additional_info_psbE, i64 0, i64 %indvars.iv.next
  %1 = load ptr, ptr %arrayidx, align 8
  %bcmp = tail call i32 @bcmp(ptr noundef nonnull dereferenceable(4) %1, ptr noundef nonnull dereferenceable(4) %key, i64 4)
  %cmp2 = icmp eq i32 %bcmp, 0
  br i1 %cmp2, label %return.loopexit, label %for.cond, !llvm.loop !24

return.loopexit:                                  ; preds = %for.cond, %for.body
  %cmp.le = icmp ult i64 %indvars.iv7, 13
  br label %return

return:                                           ; preds = %return.loopexit, %entry
  %cmp.lcssa = phi i1 [ true, %entry ], [ %cmp.le, %return.loopexit ]
  ret i1 %cmp.lcssa
}